target datalayout = "e-m:e-p270:32:32-p271:32:32-p272:64:64-i64:64-i128:128-f80:128-n8:16:32:64-S128"
target triple = "x86_64-pc-linux-gnu"

%struct.luaEngineCtx = type { ptr }
%struct.loadCtx = type { ptr, i64, i64 }
%struct.errorInfo = type { ptr, ptr, ptr, i32 }
%struct.sdshdr8 = type { i8, i8, i8, [0 x i8] }
%struct.sdshdr16 = type <{ i16, i16, i8, [0 x i8] }>
%struct.sdshdr32 = type <{ i32, i32, i8, [0 x i8] }>
%struct.sdshdr64 = type <{ i64, i64, i8, [0 x i8] }>

@.str.2 = private unnamed_addr constant [16 x i8] c"__LIBRARY_API__\00", align 1
@.str.6 = private unnamed_addr constant [16 x i8] c"__GLOBALS_API__\00", align 1
@.str.8 = private unnamed_addr constant [8 x i8] c"__index\00", align 1
@.str.10 = private unnamed_addr constant [16 x i8] c"__LIBRARY_CTX__\00", align 1
@.str.29 = private unnamed_addr constant [15 x i8] c"@user_function\00", align 1
@.str.30 = private unnamed_addr constant [29 x i8] c"Error compiling function: %s\00", align 1
@.str.31 = private unnamed_addr constant [24 x i8] c"lua_isfunction(lua, -1)\00", align 1
@.str.32 = private unnamed_addr constant [15 x i8] c"function_lua.c\00", align 1
@getMonotonicUs = external global ptr, align 8
@.str.33 = private unnamed_addr constant [32 x i8] c"Error registering functions: %s\00", align 1
@gc_count = internal global i32 0, align 4

; Function Attrs: inlinehint nounwind uwtable
define internal i64 @sdslen(ptr noundef %0) #7 {
  %2 = alloca i64, align 8
  %3 = alloca ptr, align 8
  %4 = alloca i8, align 1
  %5 = alloca i32, align 4
  store ptr %0, ptr %3, align 8, !tbaa !13
  call void @llvm.lifetime.start.p0(i64 1, ptr %4) #11
  %6 = load ptr, ptr %3, align 8, !tbaa !13
  %7 = getelementptr inbounds i8, ptr %6, i64 -1
  %8 = load i8, ptr %7, align 1, !tbaa !87
  store i8 %8, ptr %4, align 1, !tbaa !87
  %9 = load i8, ptr %4, align 1, !tbaa !87
  %10 = zext i8 %9 to i32
  %11 = and i32 %10, 7
  switch i32 %11, label %40 [
    i32 0, label %12
    i32 1, label %17
    i32 2, label %23
    i32 3, label %29
    i32 4, label %35
  ]

12:                                               ; preds = %1
  %13 = load i8, ptr %4, align 1, !tbaa !87
  %14 = zext i8 %13 to i32
  %15 = ashr i32 %14, 3
  %16 = sext i32 %15 to i64
  store i64 %16, ptr %2, align 8
  store i32 1, ptr %5, align 4
  br label %41

17:                                               ; preds = %1
  %18 = load ptr, ptr %3, align 8, !tbaa !13
  %19 = getelementptr inbounds i8, ptr %18, i64 -3
  %20 = getelementptr inbounds nuw %struct.sdshdr8, ptr %19, i32 0, i32 0
  %21 = load i8, ptr %20, align 1, !tbaa !87
  %22 = zext i8 %21 to i64
  store i64 %22, ptr %2, align 8
  store i32 1, ptr %5, align 4
  br label %41

23:                                               ; preds = %1
  %24 = load ptr, ptr %3, align 8, !tbaa !13
  %25 = getelementptr inbounds i8, ptr %24, i64 -5
  %26 = getelementptr inbounds nuw %struct.sdshdr16, ptr %25, i32 0, i32 0
  %27 = load i16, ptr %26, align 1, !tbaa !88
  %28 = zext i16 %27 to i64
  store i64 %28, ptr %2, align 8
  store i32 1, ptr %5, align 4
  br label %41

29:                                               ; preds = %1
  %30 = load ptr, ptr %3, align 8, !tbaa !13
  %31 = getelementptr inbounds i8, ptr %30, i64 -9
  %32 = getelementptr inbounds nuw %struct.sdshdr32, ptr %31, i32 0, i32 0
  %33 = load i32, ptr %32, align 1, !tbaa !45
  %34 = zext i32 %33 to i64
  store i64 %34, ptr %2, align 8
  store i32 1, ptr %5, align 4
  br label %41

35:                                               ; preds = %1
  %36 = load ptr, ptr %3, align 8, !tbaa !13
  %37 = getelementptr inbounds i8, ptr %36, i64 -17
  %38 = getelementptr inbounds nuw %struct.sdshdr64, ptr %37, i32 0, i32 0
  %39 = load i64, ptr %38, align 1, !tbaa !42
  store i64 %39, ptr %2, align 8
  store i32 1, ptr %5, align 4
  br label %41

40:                                               ; preds = %1
  store i64 0, ptr %2, align 8
  store i32 1, ptr %5, align 4
  br label %41

41:                                               ; preds = %40, %35, %29, %23, %17, %12
  call void @llvm.lifetime.end.p0(i64 1, ptr %4) #11
  %42 = load i64, ptr %2, align 8
  ret i64 %42
}

; Function Attrs: nounwind uwtable
define internal i32 @luaEngineCreate(ptr noundef %0, ptr noundef %1, ptr noundef %2, i64 noundef %3, ptr noundef %4) #0 {
  %6 = alloca i32, align 4
  %7 = alloca ptr, align 8
  %8 = alloca ptr, align 8
  %9 = alloca ptr, align 8
  %10 = alloca i64, align 8
  %11 = alloca ptr, align 8
  %12 = alloca i32, align 4
  %13 = alloca ptr, align 8
  %14 = alloca ptr, align 8
  %15 = alloca %struct.loadCtx, align 8
  %16 = alloca %struct.errorInfo, align 8
  %17 = alloca i32, align 4
  store ptr %0, ptr %7, align 8, !tbaa !27
  store ptr %1, ptr %8, align 8, !tbaa !41
  store ptr %2, ptr %9, align 8, !tbaa !13
  store i64 %3, ptr %10, align 8, !tbaa !42
  store ptr %4, ptr %11, align 8, !tbaa !43
  call void @llvm.lifetime.start.p0(i64 4, ptr %12) #11
  store i32 -1, ptr %12, align 4, !tbaa !45
  call void @llvm.lifetime.start.p0(i64 8, ptr %13) #11
  %18 = load ptr, ptr %7, align 8, !tbaa !27
  store ptr %18, ptr %13, align 8, !tbaa !5
  call void @llvm.lifetime.start.p0(i64 8, ptr %14) #11
  %19 = load ptr, ptr %13, align 8, !tbaa !5
  %20 = getelementptr inbounds nuw %struct.luaEngineCtx, ptr %19, i32 0, i32 0
  %21 = load ptr, ptr %20, align 8, !tbaa !10
  store ptr %21, ptr %14, align 8, !tbaa !28
  %22 = load ptr, ptr %14, align 8, !tbaa !28
  %23 = call i32 @lua_getmetatable(ptr noundef %22, i32 noundef -10002)
  %24 = load ptr, ptr %14, align 8, !tbaa !28
  call void @lua_enablereadonlytable(ptr noundef %24, i32 noundef -1, i32 noundef 0)
  %25 = load ptr, ptr %14, align 8, !tbaa !28
  call void @lua_getfield(ptr noundef %25, i32 noundef -10000, ptr noundef @.str.2)
  %26 = load ptr, ptr %14, align 8, !tbaa !28
  call void @lua_setfield(ptr noundef %26, i32 noundef -2, ptr noundef @.str.8)
  %27 = load ptr, ptr %14, align 8, !tbaa !28
  call void @lua_enablereadonlytable(ptr noundef %27, i32 noundef -10002, i32 noundef 1)
  %28 = load ptr, ptr %14, align 8, !tbaa !28
  call void @lua_settop(ptr noundef %28, i32 noundef -2)
  %29 = load ptr, ptr %14, align 8, !tbaa !28
  %30 = load ptr, ptr %9, align 8, !tbaa !13
  %31 = load ptr, ptr %9, align 8, !tbaa !13
  %32 = call i64 @sdslen(ptr noundef %31)
  %33 = call i32 @luaL_loadbuffer(ptr noundef %29, ptr noundef %30, i64 noundef %32, ptr noundef @.str.29)
  %34 = icmp ne i32 %33, 0
  br i1 %34, label %35, label %42

35:                                               ; preds = %5
  %36 = call ptr @sdsempty()
  %37 = load ptr, ptr %14, align 8, !tbaa !28
  %38 = call ptr @lua_tolstring(ptr noundef %37, i32 noundef -1, ptr noundef null)
  %39 = call ptr (ptr, ptr, ...) @sdscatprintf(ptr noundef %36, ptr noundef @.str.30, ptr noundef %38)
  %40 = load ptr, ptr %11, align 8, !tbaa !43
  store ptr %39, ptr %40, align 8, !tbaa !13
  %41 = load ptr, ptr %14, align 8, !tbaa !28
  call void @lua_settop(ptr noundef %41, i32 noundef -2)
  br label %79

42:                                               ; preds = %5
  %43 = load ptr, ptr %14, align 8, !tbaa !28
  %44 = call i32 @lua_type(ptr noundef %43, i32 noundef -1)
  %45 = icmp eq i32 %44, 6
  %46 = xor i1 %45, true
  %47 = xor i1 %46, true
  %48 = zext i1 %47 to i32
  %49 = sext i32 %48 to i64
  %50 = call i64 @llvm.expect.i64(i64 %49, i64 1)
  %51 = icmp ne i64 %50, 0
  br i1 %51, label %52, label %53

52:                                               ; preds = %42
  br label %55

53:                                               ; preds = %42
  call void @_serverAssert(ptr noundef @.str.31, ptr noundef @.str.32, i32 noundef 106)
  call void @abort() #14
  unreachable

54:                                               ; No predecessors!
  br label %55

55:                                               ; preds = %54, %52
  %56 = getelementptr inbounds nuw %struct.loadCtx, ptr %15, i32 0, i32 0
  %57 = load ptr, ptr %8, align 8, !tbaa !41
  store ptr %57, ptr %56, align 8, !tbaa !36
  %58 = getelementptr inbounds nuw %struct.loadCtx, ptr %15, i32 0, i32 1
  %59 = load ptr, ptr @getMonotonicUs, align 8, !tbaa !27
  %60 = call i64 %59()
  store i64 %60, ptr %58, align 8, !tbaa !47
  %61 = getelementptr inbounds nuw %struct.loadCtx, ptr %15, i32 0, i32 2
  %62 = load i64, ptr %10, align 8, !tbaa !42
  store i64 %62, ptr %61, align 8, !tbaa !48
  %63 = load ptr, ptr %14, align 8, !tbaa !28
  call void @luaSaveOnRegistry(ptr noundef %63, ptr noundef @.str.10, ptr noundef %15)
  %64 = load ptr, ptr %14, align 8, !tbaa !28
  %65 = call i32 @lua_sethook(ptr noundef %64, ptr noundef @luaEngineLoadHook, i32 noundef 8, i32 noundef 100000)
  %66 = load ptr, ptr %14, align 8, !tbaa !28
  %67 = call i32 @lua_pcall(ptr noundef %66, i32 noundef 0, i32 noundef 0, i32 noundef 0)
  %68 = icmp ne i32 %67, 0
  br i1 %68, label %69, label %78

69:                                               ; preds = %55
  call void @llvm.lifetime.start.p0(i64 32, ptr %16) #11
  call void @llvm.memset.p0.i64(ptr align 8 %16, i8 0, i64 32, i1 false)
  %70 = load ptr, ptr %14, align 8, !tbaa !28
  call void @luaExtractErrorInformation(ptr noundef %70, ptr noundef %16)
  %71 = call ptr @sdsempty()
  %72 = getelementptr inbounds nuw %struct.errorInfo, ptr %16, i32 0, i32 0
  %73 = load ptr, ptr %72, align 8, !tbaa !49
  %74 = call ptr (ptr, ptr, ...) @sdscatprintf(ptr noundef %71, ptr noundef @.str.33, ptr noundef %73)
  %75 = load ptr, ptr %11, align 8, !tbaa !43
  store ptr %74, ptr %75, align 8, !tbaa !13
  %76 = load ptr, ptr %14, align 8, !tbaa !28
  call void @lua_settop(ptr noundef %76, i32 noundef -2)
  call void @luaErrorInformationDiscard(ptr noundef %16)
  store i32 2, ptr %17, align 4
  call void @llvm.lifetime.end.p0(i64 32, ptr %16) #11
  %77 = load i32, ptr %17, align 4
  switch i32 %77, label %92 [
    i32 2, label %79
  ]

78:                                               ; preds = %55
  store i32 0, ptr %12, align 4, !tbaa !45
  br label %79

79:                                               ; preds = %78, %69, %35
  %80 = load ptr, ptr %14, align 8, !tbaa !28
  %81 = call i32 @lua_getmetatable(ptr noundef %80, i32 noundef -10002)
  %82 = load ptr, ptr %14, align 8, !tbaa !28
  call void @lua_enablereadonlytable(ptr noundef %82, i32 noundef -1, i32 noundef 0)
  %83 = load ptr, ptr %14, align 8, !tbaa !28
  call void @lua_getfield(ptr noundef %83, i32 noundef -10000, ptr noundef @.str.6)
  %84 = load ptr, ptr %14, align 8, !tbaa !28
  call void @lua_setfield(ptr noundef %84, i32 noundef -2, ptr noundef @.str.8)
  %85 = load ptr, ptr %14, align 8, !tbaa !28
  call void @lua_enablereadonlytable(ptr noundef %85, i32 noundef -10002, i32 noundef 1)
  %86 = load ptr, ptr %14, align 8, !tbaa !28
  call void @lua_settop(ptr noundef %86, i32 noundef -2)
  %87 = load ptr, ptr %14, align 8, !tbaa !28
  %88 = call i32 @lua_sethook(ptr noundef %87, ptr noundef null, i32 noundef 0, i32 noundef 0)
  %89 = load ptr, ptr %14, align 8, !tbaa !28
  call void @luaSaveOnRegistry(ptr noundef %89, ptr noundef @.str.10, ptr noundef null)
  %90 = load ptr, ptr %14, align 8, !tbaa !28
  call void @luaGC(ptr noundef %90, ptr noundef @gc_count)
  %91 = load i32, ptr %12, align 4, !tbaa !45
  store i32 %91, ptr %6, align 4
  store i32 1, ptr %17, align 4
  br label %92

92:                                               ; preds = %79, %69
  call void @llvm.lifetime.end.p0(i64 8, ptr %14) #11
  call void @llvm.lifetime.end.p0(i64 8, ptr %13) #11
  call void @llvm.lifetime.end.p0(i64 4, ptr %12) #11
  %93 = load i32, ptr %6, align 4
  ret i32 %93
}