; Function Attrs: nounwind uwtable
define internal range(i32 -1, 1) i32 @luaEngineCreate(ptr noundef readonly captures(none) %0, ptr noundef %1, ptr noundef %2, i64 noundef %3, ptr noundef writeonly captures(none) %4) #0 {
  %6 = alloca %struct.loadCtx, align 8
  %7 = alloca %struct.errorInfo, align 8
  %8 = load ptr, ptr %0, align 8, !tbaa !5
  %9 = tail call i32 @lua_getmetatable(ptr noundef %8, i32 noundef -10002) #9
  tail call void @lua_enablereadonlytable(ptr noundef %8, i32 noundef -1, i32 noundef 0) #9
  tail call void @lua_getfield(ptr noundef %8, i32 noundef -10000, ptr noundef nonnull @.str.2) #9
  tail call void @lua_setfield(ptr noundef %8, i32 noundef -2, ptr noundef nonnull @.str.8) #9
  tail call void @lua_enablereadonlytable(ptr noundef %8, i32 noundef -10002, i32 noundef 1) #9
  tail call void @lua_settop(ptr noundef %8, i32 noundef -2) #9
  %10 = getelementptr inbounds i8, ptr %2, i64 -1
  %11 = load i8, ptr %10, align 1, !tbaa !26
  %12 = zext i8 %11 to i32
  %13 = and i32 %12, 7
  switch i32 %13, label %sdslen.exit [
    i32 0, label %14
    i32 1, label %17
    i32 2, label %21
    i32 3, label %25
    i32 4, label %29
  ]

14:                                               ; preds = %5
  %15 = lshr i32 %12, 3
  %16 = zext nneg i32 %15 to i64
  br label %sdslen.exit

17:                                               ; preds = %5
  %18 = getelementptr inbounds i8, ptr %2, i64 -3
  %19 = load i8, ptr %18, align 1, !tbaa !26
  %20 = zext i8 %19 to i64
  br label %sdslen.exit

21:                                               ; preds = %5
  %22 = getelementptr inbounds i8, ptr %2, i64 -5
  %23 = load i16, ptr %22, align 1, !tbaa !27
  %24 = zext i16 %23 to i64
  br label %sdslen.exit

25:                                               ; preds = %5
  %26 = getelementptr inbounds i8, ptr %2, i64 -9
  %27 = load i32, ptr %26, align 1, !tbaa !29
  %28 = zext i32 %27 to i64
  br label %sdslen.exit

29:                                               ; preds = %5
  %30 = getelementptr inbounds i8, ptr %2, i64 -17
  %31 = load i64, ptr %30, align 1, !tbaa !30
  br label %sdslen.exit

sdslen.exit:                                      ; preds = %5, %14, %17, %21, %25, %29
  %.0.i = phi i64 [ %31, %29 ], [ %28, %25 ], [ %24, %21 ], [ %20, %17 ], [ %16, %14 ], [ 0, %5 ]
  %32 = tail call i32 @luaL_loadbuffer(ptr noundef %8, ptr noundef nonnull %2, i64 noundef %.0.i, ptr noundef nonnull @.str.29) #9
  %.not = icmp eq i32 %32, 0
  br i1 %.not, label %37, label %33

33:                                               ; preds = %sdslen.exit
  %34 = tail call ptr @sdsempty() #9
  %35 = tail call ptr @lua_tolstring(ptr noundef %8, i32 noundef -1, ptr noundef null) #9
  %36 = tail call ptr (ptr, ptr, ...) @sdscatprintf(ptr noundef %34, ptr noundef nonnull @.str.30, ptr noundef %35) #9
  store ptr %36, ptr %4, align 8, !tbaa !22
  tail call void @lua_settop(ptr noundef %8, i32 noundef -2) #9
  br label %52

37:                                               ; preds = %sdslen.exit
  %38 = tail call i32 @lua_type(ptr noundef %8, i32 noundef -1) #9
  %39 = icmp eq i32 %38, 6
  br i1 %39, label %41, label %40, !prof !31

40:                                               ; preds = %37
  tail call void @_serverAssert(ptr noundef nonnull @.str.31, ptr noundef nonnull @.str.32, i32 noundef 106) #9
  tail call void @abort() #11
  unreachable

41:                                               ; preds = %37
  store ptr %1, ptr %6, align 8, !tbaa !23
  %42 = getelementptr inbounds nuw i8, ptr %6, i64 8
  %43 = load ptr, ptr @getMonotonicUs, align 8, !tbaa !11
  %44 = tail call i64 %43() #9
  store i64 %44, ptr %42, align 8, !tbaa !32
  %45 = getelementptr inbounds nuw i8, ptr %6, i64 16
  store i64 %3, ptr %45, align 8, !tbaa !33
  call void @luaSaveOnRegistry(ptr noundef %8, ptr noundef nonnull @.str.10, ptr noundef nonnull %6) #9
  %46 = call i32 @lua_sethook(ptr noundef %8, ptr noundef nonnull @luaEngineLoadHook, i32 noundef 8, i32 noundef 100000) #9
  %47 = call i32 @lua_pcall(ptr noundef %8, i32 noundef 0, i32 noundef 0, i32 noundef 0) #9
  %.not35 = icmp eq i32 %47, 0
  br i1 %.not35, label %52, label %48

48:                                               ; preds = %41
  call void @llvm.lifetime.start.p0(i64 32, ptr nonnull %7) #9
  call void @llvm.memset.p0.i64(ptr noundef nonnull align 8 dereferenceable(32) %7, i8 0, i64 32, i1 false)
  call void @luaExtractErrorInformation(ptr noundef %8, ptr noundef nonnull %7) #9
  %49 = call ptr @sdsempty() #9
  %50 = load ptr, ptr %7, align 8, !tbaa !34
  %51 = call ptr (ptr, ptr, ...) @sdscatprintf(ptr noundef %49, ptr noundef nonnull @.str.33, ptr noundef %50) #9
  store ptr %51, ptr %4, align 8, !tbaa !22
  call void @lua_settop(ptr noundef %8, i32 noundef -2) #9
  call void @luaErrorInformationDiscard(ptr noundef nonnull %7) #9
  call void @llvm.lifetime.end.p0(i64 32, ptr nonnull %7) #9
  br label %52

52:                                               ; preds = %41, %48, %33
  %.034 = phi i32 [ -1, %33 ], [ -1, %48 ], [ 0, %41 ]
  %53 = call i32 @lua_getmetatable(ptr noundef %8, i32 noundef -10002) #9
  call void @lua_enablereadonlytable(ptr noundef %8, i32 noundef -1, i32 noundef 0) #9
  call void @lua_getfield(ptr noundef %8, i32 noundef -10000, ptr noundef nonnull @.str.6) #9
  call void @lua_setfield(ptr noundef %8, i32 noundef -2, ptr noundef nonnull @.str.8) #9
  call void @lua_enablereadonlytable(ptr noundef %8, i32 noundef -10002, i32 noundef 1) #9
  call void @lua_settop(ptr noundef %8, i32 noundef -2) #9
  %54 = call i32 @lua_sethook(ptr noundef %8, ptr noundef null, i32 noundef 0, i32 noundef 0) #9
  call void @luaSaveOnRegistry(ptr noundef %8, ptr noundef nonnull @.str.10, ptr noundef null) #9
  call void @luaGC(ptr noundef %8, ptr noundef nonnull @gc_count) #9
  ret i32 %.034
}